; Function Attrs: mustprogress nounwind uwtable
define internal void @_ZN12_GLOBAL__N_117EarlyIfPredicatorD0Ev(ptr noundef nonnull align 8 dereferenceable(1096) initializes((0, 8)) %0) unnamed_addr #0 align 2 {
  store ptr getelementptr inbounds nuw inrange(-16, 176) (i8, ptr @_ZTVN12_GLOBAL__N_117EarlyIfPredicatorE, i64 16), ptr %0, align 8
  %2 = getelementptr inbounds nuw i8, ptr %0, i64 384
  tail call fastcc void @_ZN12_GLOBAL__N_19SSAIfConvD2Ev(ptr noundef nonnull align 8 dereferenceable(712) %2) #20
  %3 = getelementptr inbounds nuw i8, ptr %0, i64 264
  %4 = tail call noundef i64 @_ZNK4llvm15SmallVectorBaseIjE4sizeEv(ptr noundef nonnull align 8 dereferenceable(80) %3) #20
  %5 = load ptr, ptr %3, align 8
  %6 = getelementptr inbounds nuw i8, ptr %0, i64 280
  %7 = icmp eq ptr %5, %6
  br i1 %7, label %_ZN12_GLOBAL__N_117EarlyIfPredicatorD2Ev.exit, label %8

8:                                                ; preds = %1
  tail call void @free(ptr noundef %5) #20
  br label %_ZN12_GLOBAL__N_117EarlyIfPredicatorD2Ev.exit

_ZN12_GLOBAL__N_117EarlyIfPredicatorD2Ev.exit:    ; preds = %1, %8
  tail call void @_ZN4llvm4PassD2Ev(ptr noundef nonnull align 8 dereferenceable(1096) %0) #20
  tail call void @_ZdlPvm(ptr noundef nonnull %0, i64 noundef 1096) #23
  ret void
}